#include <math.h>
#include <stdio.h>
#include <stdlib.h>
#include <string.h>


int main()
{
	int n,i;
	char num,s[100],j;
	scanf("%d",&n);
	for(i=0;i<n;i++)
	{
		scanf("%s",s);
		num=strlen(s);
		if(s[num-2]=='e'&&s[num-1]=='r')
		{
			for(j=0;j<num-3;j++)
             printf("%c",s[j]);
			printf("%c\n",s[num-3]);
		}
		else if(s[num-2]=='l'&&s[num-1]=='y')
		{
			for(j=0;j<num-3;j++)
             printf("%c",s[j]);
			printf("%c\n",s[num-3]);
		}
		else if(s[num-3]=='i'&&s[num-2]=='n'&&s[num-1]=='g')
		{
			for(j=0;j<num-4;j++)
             printf("%c",s[j]);
			printf("%c\n",s[num-4]);
		}
	}
	return 0;
}

