; ModuleID = 'source-C-CXX/56/1477.c'
source_filename = "source-C-CXX/56/1477.c"
target datalayout = "e-m:e-p270:32:32-p271:32:32-p272:64:64-i64:64-f80:128-n8:16:32:64-S128"
target triple = "x86_64-pc-linux-gnu"

@.str = private unnamed_addr constant [3 x i8] c"%d\00", align 1
@.str.1 = private unnamed_addr constant [3 x i8] c"%s\00", align 1
@.str.3 = private unnamed_addr constant [4 x i8] c"%c\0A\00", align 1

; Function Attrs: nofree nounwind sspstrong uwtable
define dso_local i32 @main() local_unnamed_addr #0 {
  %1 = alloca i32, align 4
  %2 = alloca [100 x i8], align 16
  %3 = bitcast i32* %1 to i8*
  call void @llvm.lifetime.start.p0i8(i64 4, i8* nonnull %3) #5
  %4 = getelementptr inbounds [100 x i8], [100 x i8]* %2, i64 0, i64 0
  call void @llvm.lifetime.start.p0i8(i64 100, i8* nonnull %4) #5
  %5 = call i32 (i8*, ...) @__isoc99_scanf(i8* getelementptr inbounds ([3 x i8], [3 x i8]* @.str, i64 0, i64 0), i32* nonnull %1)
  %6 = load i32, i32* %1, align 4, !tbaa !5
  %7 = icmp sgt i32 %6, 0
  br i1 %7, label %8, label %95

8:                                                ; preds = %0, %91
  %9 = phi i32 [ %92, %91 ], [ 0, %0 ]
  %10 = call i32 (i8*, ...) @__isoc99_scanf(i8* getelementptr inbounds ([3 x i8], [3 x i8]* @.str.1, i64 0, i64 0), i8* nonnull %4)
  %11 = call i64 @strlen(i8* noundef nonnull %4) #6
  %12 = trunc i64 %11 to i32
  %13 = shl i32 %12, 24
  %14 = ashr exact i32 %13, 24
  %15 = add nsw i32 %14, -2
  %16 = sext i32 %15 to i64
  %17 = getelementptr inbounds [100 x i8], [100 x i8]* %2, i64 0, i64 %16
  %18 = load i8, i8* %17, align 1, !tbaa !9
  switch i8 %18, label %57 [
    i8 101, label %19
    i8 108, label %38
  ]

19:                                               ; preds = %8
  %20 = add nsw i32 %14, -1
  %21 = sext i32 %20 to i64
  %22 = getelementptr inbounds [100 x i8], [100 x i8]* %2, i64 0, i64 %21
  %23 = load i8, i8* %22, align 1, !tbaa !9
  %24 = icmp eq i8 %23, 114
  br i1 %24, label %25, label %57

25:                                               ; preds = %19
  %26 = add nsw i32 %14, -3
  %27 = icmp sgt i32 %13, 50331648
  br i1 %27, label %28, label %84

28:                                               ; preds = %25, %28
  %29 = phi i8 [ %35, %28 ], [ 0, %25 ]
  %30 = sext i8 %29 to i64
  %31 = getelementptr inbounds [100 x i8], [100 x i8]* %2, i64 0, i64 %30
  %32 = load i8, i8* %31, align 1, !tbaa !9
  %33 = sext i8 %32 to i32
  %34 = call i32 @putchar(i32 %33)
  %35 = add i8 %29, 1
  %36 = sext i8 %35 to i32
  %37 = icmp sgt i32 %26, %36
  br i1 %37, label %28, label %84, !llvm.loop !10

38:                                               ; preds = %8
  %39 = add nsw i32 %14, -1
  %40 = sext i32 %39 to i64
  %41 = getelementptr inbounds [100 x i8], [100 x i8]* %2, i64 0, i64 %40
  %42 = load i8, i8* %41, align 1, !tbaa !9
  %43 = icmp eq i8 %42, 121
  br i1 %43, label %44, label %57

44:                                               ; preds = %38
  %45 = add nsw i32 %14, -3
  %46 = icmp sgt i32 %13, 50331648
  br i1 %46, label %47, label %84

47:                                               ; preds = %44, %47
  %48 = phi i8 [ %54, %47 ], [ 0, %44 ]
  %49 = sext i8 %48 to i64
  %50 = getelementptr inbounds [100 x i8], [100 x i8]* %2, i64 0, i64 %49
  %51 = load i8, i8* %50, align 1, !tbaa !9
  %52 = sext i8 %51 to i32
  %53 = call i32 @putchar(i32 %52)
  %54 = add i8 %48, 1
  %55 = sext i8 %54 to i32
  %56 = icmp sgt i32 %45, %55
  br i1 %56, label %47, label %84, !llvm.loop !12

57:                                               ; preds = %8, %19, %38
  %58 = add nsw i32 %14, -3
  %59 = sext i32 %58 to i64
  %60 = getelementptr inbounds [100 x i8], [100 x i8]* %2, i64 0, i64 %59
  %61 = load i8, i8* %60, align 1, !tbaa !9
  %62 = icmp eq i8 %61, 105
  %63 = icmp eq i8 %18, 110
  %64 = select i1 %62, i1 %63, i1 false
  br i1 %64, label %65, label %91

65:                                               ; preds = %57
  %66 = add nsw i32 %14, -1
  %67 = sext i32 %66 to i64
  %68 = getelementptr inbounds [100 x i8], [100 x i8]* %2, i64 0, i64 %67
  %69 = load i8, i8* %68, align 1, !tbaa !9
  %70 = icmp eq i8 %69, 103
  br i1 %70, label %71, label %91

71:                                               ; preds = %65
  %72 = add nsw i32 %14, -4
  %73 = icmp sgt i32 %13, 67108864
  br i1 %73, label %74, label %84

74:                                               ; preds = %71, %74
  %75 = phi i8 [ %81, %74 ], [ 0, %71 ]
  %76 = sext i8 %75 to i64
  %77 = getelementptr inbounds [100 x i8], [100 x i8]* %2, i64 0, i64 %76
  %78 = load i8, i8* %77, align 1, !tbaa !9
  %79 = sext i8 %78 to i32
  %80 = call i32 @putchar(i32 %79)
  %81 = add i8 %75, 1
  %82 = sext i8 %81 to i32
  %83 = icmp sgt i32 %72, %82
  br i1 %83, label %74, label %84, !llvm.loop !13

84:                                               ; preds = %47, %28, %74, %71, %44, %25
  %85 = phi i32 [ %26, %25 ], [ %45, %44 ], [ %72, %71 ], [ %72, %74 ], [ %26, %28 ], [ %45, %47 ]
  %86 = sext i32 %85 to i64
  %87 = getelementptr inbounds [100 x i8], [100 x i8]* %2, i64 0, i64 %86
  %88 = load i8, i8* %87, align 1, !tbaa !9
  %89 = sext i8 %88 to i32
  %90 = call i32 (i8*, ...) @printf(i8* nonnull dereferenceable(1) getelementptr inbounds ([4 x i8], [4 x i8]* @.str.3, i64 0, i64 0), i32 %89)
  br label %91

91:                                               ; preds = %84, %57, %65
  %92 = add nuw nsw i32 %9, 1
  %93 = load i32, i32* %1, align 4, !tbaa !5
  %94 = icmp slt i32 %92, %93
  br i1 %94, label %8, label %95, !llvm.loop !14

95:                                               ; preds = %91, %0
  call void @llvm.lifetime.end.p0i8(i64 100, i8* nonnull %4) #5
  call void @llvm.lifetime.end.p0i8(i64 4, i8* nonnull %3) #5
  ret i32 0
}

; Function Attrs: argmemonly mustprogress nofree nosync nounwind willreturn
declare void @llvm.lifetime.start.p0i8(i64 immarg, i8* nocapture) #1

; Function Attrs: nofree nounwind
declare noundef i32 @__isoc99_scanf(i8* nocapture noundef readonly, ...) local_unnamed_addr #2

; Function Attrs: argmemonly mustprogress nofree nounwind readonly willreturn
declare i64 @strlen(i8* nocapture) local_unnamed_addr #3

; Function Attrs: nofree nounwind
declare noundef i32 @printf(i8* nocapture noundef readonly, ...) local_unnamed_addr #2

; Function Attrs: argmemonly mustprogress nofree nosync nounwind willreturn
declare void @llvm.lifetime.end.p0i8(i64 immarg, i8* nocapture) #1

; Function Attrs: nofree nounwind
declare noundef i32 @putchar(i32 noundef) local_unnamed_addr #4


!llvm.module.flags = !{!0, !1, !2, !3}
!llvm.ident = !{!4}

!0 = !{i32 1, !"wchar_size", i32 4}
!1 = !{i32 7, !"PIC Level", i32 2}
!2 = !{i32 7, !"PIE Level", i32 2}
!3 = !{i32 7, !"uwtable", i32 1}
!4 = !{!"clang version 13.0.0"}
!5 = !{!6, !6, i64 0}
!6 = !{!"int", !7, i64 0}
!7 = !{!"omnipotent char", !8, i64 0}
!8 = !{!"Simple C/C++ TBAA"}
!9 = !{!7, !7, i64 0}
!10 = distinct !{!10, !11}
!11 = !{!"llvm.loop.mustprogress"}
!12 = distinct !{!12, !11}
!13 = distinct !{!13, !11}
!14 = distinct !{!14, !11}
